; Function Attrs: mustprogress uwtable
define noundef i32 @_ZNK6icu_7531FormattedValueStringBuilderImpl9trimFrontEi(ptr noundef nonnull align 8 dereferenceable(300) %this, i32 noundef %start) local_unnamed_addr #1 align 2 {
entry:
  %call = tail call noundef ptr @_ZN6icu_757unisets3getENS0_3KeyE(i32 noundef 1)
  %fString = getelementptr inbounds i8, ptr %this, i64 8
  %0 = load i8, ptr %fString, align 8
  %1 = and i8 %0, 1
  %tobool.not.i = icmp eq i8 %1, 0
  %fChars.i = getelementptr inbounds i8, ptr %this, i64 16
  %2 = load ptr, ptr %fChars.i, align 8
  %cond.i = select i1 %tobool.not.i, ptr %fChars.i, ptr %2
  %fZero = getelementptr inbounds i8, ptr %this, i64 136
  %3 = load i32, ptr %fZero, align 8
  %idx.ext = sext i32 %3 to i64
  %add.ptr = getelementptr inbounds i16, ptr %cond.i, i64 %idx.ext
  %idx.ext4 = sext i32 %start to i64
  %add.ptr5 = getelementptr inbounds i16, ptr %add.ptr, i64 %idx.ext4
  %fLength = getelementptr inbounds i8, ptr %this, i64 140
  %4 = load i32, ptr %fLength, align 4
  %sub = sub nsw i32 %4, %start
  %call7 = tail call noundef i32 @_ZNK6icu_7510UnicodeSet4spanEPKDsi17USetSpanCondition(ptr noundef nonnull align 8 dereferenceable(200) %call, ptr noundef %add.ptr5, i32 noundef %sub, i32 noundef 1)
  %add = add nsw i32 %call7, %start
  ret i32 %add
}